target datalayout = "e-m:e-p270:32:32-p271:32:32-p272:64:64-i64:64-i128:128-f80:128-n8:16:32:64-S128"
target triple = "x86_64-pc-linux-gnu"

%struct._lv_font_manager_t = type { %struct.lv_ll_t, %struct.lv_ll_t, %struct.lv_ll_t, ptr }
%struct.lv_ll_t = type { i32, ptr, ptr }
%struct._lv_font_path_t = type { ptr, ptr, i8 }

; Function Attrs: nounwind uwtable
define internal ptr @lv_font_manager_get_path(ptr noundef %0, ptr noundef %1) #0 {
  %3 = alloca ptr, align 8
  %4 = alloca ptr, align 8
  %5 = alloca ptr, align 8
  %6 = alloca ptr, align 8
  %7 = alloca i32, align 4
  store ptr %0, ptr %4, align 8, !tbaa !7
  store ptr %1, ptr %5, align 8, !tbaa !7
  call void @llvm.lifetime.start.p0(i64 8, ptr %6) #6
  %8 = load ptr, ptr %4, align 8, !tbaa !7
  %9 = getelementptr inbounds nuw %struct._lv_font_manager_t, ptr %8, i32 0, i32 2
  %10 = call ptr @lv_ll_get_head(ptr noundef %9)
  store ptr %10, ptr %6, align 8, !tbaa !7
  br label %11

11:                                               ; preds = %26, %2
  %12 = load ptr, ptr %6, align 8, !tbaa !7
  %13 = icmp ne ptr %12, null
  br i1 %13, label %14, label %31

14:                                               ; preds = %11
  %15 = load ptr, ptr %5, align 8, !tbaa !7
  %16 = load ptr, ptr %6, align 8, !tbaa !7
  %17 = getelementptr inbounds nuw %struct._lv_font_path_t, ptr %16, i32 0, i32 0
  %18 = load ptr, ptr %17, align 8, !tbaa !17
  %19 = call i32 @lv_strcmp(ptr noundef %15, ptr noundef %18)
  %20 = icmp eq i32 %19, 0
  br i1 %20, label %21, label %25

21:                                               ; preds = %14
  %22 = load ptr, ptr %6, align 8, !tbaa !7
  %23 = getelementptr inbounds nuw %struct._lv_font_path_t, ptr %22, i32 0, i32 1
  %24 = load ptr, ptr %23, align 8, !tbaa !18
  store ptr %24, ptr %3, align 8
  store i32 1, ptr %7, align 4
  br label %32

25:                                               ; preds = %14
  br label %26

26:                                               ; preds = %25
  %27 = load ptr, ptr %4, align 8, !tbaa !7
  %28 = getelementptr inbounds nuw %struct._lv_font_manager_t, ptr %27, i32 0, i32 2
  %29 = load ptr, ptr %6, align 8, !tbaa !7
  %30 = call ptr @lv_ll_get_next(ptr noundef %28, ptr noundef %29)
  store ptr %30, ptr %6, align 8, !tbaa !7
  br label %11, !llvm.loop !48

31:                                               ; preds = %11
  store ptr null, ptr %3, align 8
  store i32 1, ptr %7, align 4
  br label %32

32:                                               ; preds = %31, %21
  call void @llvm.lifetime.end.p0(i64 8, ptr %6) #6
  %33 = load ptr, ptr %3, align 8
  ret ptr %33
}

; Function Attrs: nounwind uwtable
define internal void @lv_font_manager_add_path_core(ptr noundef %0, ptr noundef %1, ptr noundef %2, i1 noundef zeroext %3) #0 {
  %5 = alloca ptr, align 8
  %6 = alloca ptr, align 8
  %7 = alloca ptr, align 8
  %8 = alloca i8, align 1
  %9 = alloca ptr, align 8
  %10 = alloca i32, align 4
  %11 = alloca ptr, align 8
  %12 = alloca i32, align 4
  %13 = alloca i32, align 4
  store ptr %0, ptr %5, align 8, !tbaa !7
  store ptr %1, ptr %6, align 8, !tbaa !7
  store ptr %2, ptr %7, align 8, !tbaa !7
  %14 = zext i1 %3 to i8
  store i8 %14, ptr %8, align 1, !tbaa !23
  br label %15

15:                                               ; preds = %4
  %16 = load ptr, ptr %5, align 8, !tbaa !7
  %17 = icmp ne ptr %16, null
  br i1 %17, label %22, label %18

18:                                               ; preds = %15
  br label %19

19:                                               ; preds = %18
  br label %20

20:                                               ; preds = %19
  br label %21

21:                                               ; preds = %20, %21
  br label %21

22:                                               ; preds = %15
  br label %23

23:                                               ; preds = %22
  br label %24

24:                                               ; preds = %23
  %25 = load ptr, ptr %6, align 8, !tbaa !7
  %26 = icmp ne ptr %25, null
  br i1 %26, label %31, label %27

27:                                               ; preds = %24
  br label %28

28:                                               ; preds = %27
  br label %29

29:                                               ; preds = %28
  br label %30

30:                                               ; preds = %29, %30
  br label %30

31:                                               ; preds = %24
  br label %32

32:                                               ; preds = %31
  br label %33

33:                                               ; preds = %32
  %34 = load ptr, ptr %7, align 8, !tbaa !7
  %35 = icmp ne ptr %34, null
  br i1 %35, label %40, label %36

36:                                               ; preds = %33
  br label %37

37:                                               ; preds = %36
  br label %38

38:                                               ; preds = %37
  br label %39

39:                                               ; preds = %38, %39
  br label %39

40:                                               ; preds = %33
  br label %41

41:                                               ; preds = %40
  call void @llvm.lifetime.start.p0(i64 8, ptr %9) #6
  %42 = load ptr, ptr %5, align 8, !tbaa !7
  %43 = load ptr, ptr %6, align 8, !tbaa !7
  %44 = call ptr @lv_font_manager_get_path(ptr noundef %42, ptr noundef %43)
  store ptr %44, ptr %9, align 8, !tbaa !7
  %45 = load ptr, ptr %9, align 8, !tbaa !7
  %46 = icmp ne ptr %45, null
  br i1 %46, label %47, label %51

47:                                               ; preds = %41
  br label %48

48:                                               ; preds = %47
  br label %49

49:                                               ; preds = %48
  br label %50

50:                                               ; preds = %49
  store i32 1, ptr %10, align 4
  br label %146

51:                                               ; preds = %41
  call void @llvm.lifetime.start.p0(i64 8, ptr %11) #6
  %52 = load ptr, ptr %5, align 8, !tbaa !7
  %53 = getelementptr inbounds nuw %struct._lv_font_manager_t, ptr %52, i32 0, i32 2
  %54 = call ptr @lv_ll_ins_tail(ptr noundef %53)
  store ptr %54, ptr %11, align 8, !tbaa !7
  br label %55

55:                                               ; preds = %51
  %56 = load ptr, ptr %11, align 8, !tbaa !7
  %57 = icmp ne ptr %56, null
  br i1 %57, label %64, label %58

58:                                               ; preds = %55
  br label %59

59:                                               ; preds = %58
  br label %60

60:                                               ; preds = %59
  br label %61

61:                                               ; preds = %60
  br label %62

62:                                               ; preds = %63, %61
  br label %63

63:                                               ; preds = %62
  br label %62

64:                                               ; preds = %55
  br label %65

65:                                               ; preds = %64
  br label %66

66:                                               ; preds = %65
  %67 = load i8, ptr %8, align 1, !tbaa !23, !range !15, !noundef !16
  %68 = trunc i8 %67 to i1
  %69 = load ptr, ptr %11, align 8, !tbaa !7
  %70 = getelementptr inbounds nuw %struct._lv_font_path_t, ptr %69, i32 0, i32 2
  %71 = zext i1 %68 to i8
  store i8 %71, ptr %70, align 8, !tbaa !12
  %72 = load i8, ptr %8, align 1, !tbaa !23, !range !15, !noundef !16
  %73 = trunc i8 %72 to i1
  br i1 %73, label %74, label %81

74:                                               ; preds = %66
  %75 = load ptr, ptr %6, align 8, !tbaa !7
  %76 = load ptr, ptr %11, align 8, !tbaa !7
  %77 = getelementptr inbounds nuw %struct._lv_font_path_t, ptr %76, i32 0, i32 0
  store ptr %75, ptr %77, align 8, !tbaa !17
  %78 = load ptr, ptr %7, align 8, !tbaa !7
  %79 = load ptr, ptr %11, align 8, !tbaa !7
  %80 = getelementptr inbounds nuw %struct._lv_font_path_t, ptr %79, i32 0, i32 1
  store ptr %78, ptr %80, align 8, !tbaa !18
  br label %142

81:                                               ; preds = %66
  call void @llvm.lifetime.start.p0(i64 4, ptr %12) #6
  %82 = load ptr, ptr %6, align 8, !tbaa !7
  %83 = call i64 @lv_strlen(ptr noundef %82)
  %84 = add i64 %83, 1
  %85 = trunc i64 %84 to i32
  store i32 %85, ptr %12, align 4, !tbaa !3
  %86 = load i32, ptr %12, align 4, !tbaa !3
  %87 = zext i32 %86 to i64
  %88 = call ptr @lv_malloc(i64 noundef %87)
  %89 = load ptr, ptr %11, align 8, !tbaa !7
  %90 = getelementptr inbounds nuw %struct._lv_font_path_t, ptr %89, i32 0, i32 0
  store ptr %88, ptr %90, align 8, !tbaa !17
  br label %91

91:                                               ; preds = %81
  %92 = load ptr, ptr %11, align 8, !tbaa !7
  %93 = getelementptr inbounds nuw %struct._lv_font_path_t, ptr %92, i32 0, i32 0
  %94 = load ptr, ptr %93, align 8, !tbaa !17
  %95 = icmp ne ptr %94, null
  br i1 %95, label %102, label %96

96:                                               ; preds = %91
  br label %97

97:                                               ; preds = %96
  br label %98

98:                                               ; preds = %97
  br label %99

99:                                               ; preds = %98
  br label %100

100:                                              ; preds = %101, %99
  br label %101

101:                                              ; preds = %100
  br label %100

102:                                              ; preds = %91
  br label %103

103:                                              ; preds = %102
  br label %104

104:                                              ; preds = %103
  %105 = load ptr, ptr %11, align 8, !tbaa !7
  %106 = getelementptr inbounds nuw %struct._lv_font_path_t, ptr %105, i32 0, i32 0
  %107 = load ptr, ptr %106, align 8, !tbaa !17
  %108 = load ptr, ptr %6, align 8, !tbaa !7
  %109 = load i32, ptr %12, align 4, !tbaa !3
  %110 = zext i32 %109 to i64
  %111 = call ptr @lv_memcpy(ptr noundef %107, ptr noundef %108, i64 noundef %110)
  call void @llvm.lifetime.start.p0(i64 4, ptr %13) #6
  %112 = load ptr, ptr %7, align 8, !tbaa !7
  %113 = call i64 @lv_strlen(ptr noundef %112)
  %114 = add i64 %113, 1
  %115 = trunc i64 %114 to i32
  store i32 %115, ptr %13, align 4, !tbaa !3
  %116 = load i32, ptr %13, align 4, !tbaa !3
  %117 = zext i32 %116 to i64
  %118 = call ptr @lv_malloc(i64 noundef %117)
  %119 = load ptr, ptr %11, align 8, !tbaa !7
  %120 = getelementptr inbounds nuw %struct._lv_font_path_t, ptr %119, i32 0, i32 1
  store ptr %118, ptr %120, align 8, !tbaa !18
  br label %121

121:                                              ; preds = %104
  %122 = load ptr, ptr %11, align 8, !tbaa !7
  %123 = getelementptr inbounds nuw %struct._lv_font_path_t, ptr %122, i32 0, i32 1
  %124 = load ptr, ptr %123, align 8, !tbaa !18
  %125 = icmp ne ptr %124, null
  br i1 %125, label %132, label %126

126:                                              ; preds = %121
  br label %127

127:                                              ; preds = %126
  br label %128

128:                                              ; preds = %127
  br label %129

129:                                              ; preds = %128
  br label %130

130:                                              ; preds = %131, %129
  br label %131

131:                                              ; preds = %130
  br label %130

132:                                              ; preds = %121
  br label %133

133:                                              ; preds = %132
  br label %134

134:                                              ; preds = %133
  %135 = load ptr, ptr %11, align 8, !tbaa !7
  %136 = getelementptr inbounds nuw %struct._lv_font_path_t, ptr %135, i32 0, i32 1
  %137 = load ptr, ptr %136, align 8, !tbaa !18
  %138 = load ptr, ptr %7, align 8, !tbaa !7
  %139 = load i32, ptr %13, align 4, !tbaa !3
  %140 = zext i32 %139 to i64
  %141 = call ptr @lv_memcpy(ptr noundef %137, ptr noundef %138, i64 noundef %140)
  call void @llvm.lifetime.end.p0(i64 4, ptr %13) #6
  call void @llvm.lifetime.end.p0(i64 4, ptr %12) #6
  br label %142

142:                                              ; preds = %134, %74
  br label %143

143:                                              ; preds = %142
  br label %144

144:                                              ; preds = %143
  br label %145

145:                                              ; preds = %144
  call void @llvm.lifetime.end.p0(i64 8, ptr %11) #6
  store i32 0, ptr %10, align 4
  br label %146

146:                                              ; preds = %145, %50
  call void @llvm.lifetime.end.p0(i64 8, ptr %9) #6
  %147 = load i32, ptr %10, align 4
  switch i32 %147, label %149 [
    i32 0, label %148
    i32 1, label %148
  ]

148:                                              ; preds = %146, %146
  ret void

149:                                              ; preds = %146
  unreachable
}

; Function Attrs: nounwind uwtable
define void @lv_font_manager_add_path_static(ptr noundef %0, ptr noundef %1, ptr noundef %2) #0 {
  %4 = alloca ptr, align 8
  %5 = alloca ptr, align 8
  %6 = alloca ptr, align 8
  store ptr %0, ptr %4, align 8, !tbaa !7
  store ptr %1, ptr %5, align 8, !tbaa !7
  store ptr %2, ptr %6, align 8, !tbaa !7
  %7 = load ptr, ptr %4, align 8, !tbaa !7
  %8 = load ptr, ptr %5, align 8, !tbaa !7
  %9 = load ptr, ptr %6, align 8, !tbaa !7
  call void @lv_font_manager_add_path_core(ptr noundef %7, ptr noundef %8, ptr noundef %9, i1 noundef zeroext true)
  ret void
}