; Function Attrs: nounwind uwtable
define void @lv_font_manager_add_path_static(ptr noundef %0, ptr noundef %1, ptr noundef %2) local_unnamed_addr #0 {
  %.not.i = icmp eq ptr %0, null
  br i1 %.not.i, label %.preheader.i, label %4

.preheader.i:                                     ; preds = %3, %.preheader.i
  br label %.preheader.i

4:                                                ; preds = %3
  %.not33.i = icmp eq ptr %1, null
  br i1 %.not33.i, label %.preheader41.i, label %5

.preheader41.i:                                   ; preds = %4, %.preheader41.i
  br label %.preheader41.i

5:                                                ; preds = %4
  %.not34.i = icmp eq ptr %2, null
  br i1 %.not34.i, label %.preheader42.i, label %6

.preheader42.i:                                   ; preds = %5, %.preheader42.i
  br label %.preheader42.i

6:                                                ; preds = %5
  %7 = getelementptr inbounds nuw i8, ptr %0, i64 48
  %8 = tail call ptr @lv_ll_get_head(ptr noundef nonnull %7) #5
  %.not10.i.i = icmp eq ptr %8, null
  br i1 %.not10.i.i, label %lv_font_manager_get_path.exit.thread.i, label %.lr.ph.i.i

.lr.ph.i.i:                                       ; preds = %6, %12
  %.011.i.i = phi ptr [ %13, %12 ], [ %8, %6 ]
  %9 = load ptr, ptr %.011.i.i, align 8, !tbaa !18
  %10 = tail call i32 @lv_strcmp(ptr noundef nonnull %1, ptr noundef %9) #5
  %11 = icmp eq i32 %10, 0
  br i1 %11, label %lv_font_manager_get_path.exit.i, label %12

12:                                               ; preds = %.lr.ph.i.i
  %13 = tail call ptr @lv_ll_get_next(ptr noundef nonnull %7, ptr noundef nonnull %.011.i.i) #5
  %.not.i.i = icmp eq ptr %13, null
  br i1 %.not.i.i, label %lv_font_manager_get_path.exit.thread.i, label %.lr.ph.i.i, !llvm.loop !21

lv_font_manager_get_path.exit.i:                  ; preds = %.lr.ph.i.i
  %14 = getelementptr inbounds nuw i8, ptr %.011.i.i, i64 8
  %15 = load ptr, ptr %14, align 8, !tbaa !19
  %.not35.i = icmp eq ptr %15, null
  br i1 %.not35.i, label %lv_font_manager_get_path.exit.thread.i, label %lv_font_manager_add_path_core.exit

lv_font_manager_get_path.exit.thread.i:           ; preds = %12, %lv_font_manager_get_path.exit.i, %6
  %16 = tail call ptr @lv_ll_ins_tail(ptr noundef nonnull %7) #5
  %.not36.i = icmp eq ptr %16, null
  br i1 %.not36.i, label %.preheader43.i, label %17

.preheader43.i:                                   ; preds = %lv_font_manager_get_path.exit.thread.i, %.preheader43.i
  br label %.preheader43.i

17:                                               ; preds = %lv_font_manager_get_path.exit.thread.i
  %18 = getelementptr inbounds nuw i8, ptr %16, i64 16
  store i8 1, ptr %18, align 8, !tbaa !13
  store ptr %1, ptr %16, align 8, !tbaa !18
  %19 = getelementptr inbounds nuw i8, ptr %16, i64 8
  store ptr %2, ptr %19, align 8, !tbaa !19
  br label %lv_font_manager_add_path_core.exit

lv_font_manager_add_path_core.exit:               ; preds = %lv_font_manager_get_path.exit.i, %17
  ret void
}